; Function Attrs: mustprogress uwtable
define void @_ZN4File5TOpenEPKw(ptr noundef nonnull align 8 dereferenceable(8256) %0, ptr noundef %1) local_unnamed_addr #2 align 2 {
  %3 = load ptr, ptr %0, align 8
  %4 = getelementptr inbounds i8, ptr %3, i64 16
  %5 = load ptr, ptr %4, align 8
  %6 = tail call noundef zeroext i1 %5(ptr noundef nonnull align 8 dereferenceable(8256) %0, ptr noundef %1, i32 noundef 0)
  br i1 %6, label %_ZN4File5WOpenEPKw.exit.thread, label %7

7:                                                ; preds = %2
  tail call void @_ZN12ErrorHandler12OpenErrorMsgEPKw(ptr noundef nonnull align 4 dereferenceable(14) @ErrHandler, ptr noundef %1)
  tail call void @_ZN12ErrorHandler4ExitE8RAR_EXIT(ptr noundef nonnull align 4 dereferenceable(14) @ErrHandler, i32 noundef 6)
  br label %_ZN4File5WOpenEPKw.exit.thread

_ZN4File5WOpenEPKw.exit.thread:                   ; preds = %2, %7
  ret void
}